; Function Attrs: mustprogress uwtable
define dso_local noundef zeroext i1 @_ZN4Luau12Anyification7isDirtyEPKNS_11TypePackVarE(ptr noundef nonnull readonly align 8 captures(none) dereferenceable(513) %0, ptr noundef %1) unnamed_addr #2 align 2 {
  %3 = getelementptr inbounds nuw i8, ptr %1, i64 72
  %4 = load i8, ptr %3, align 8, !tbaa !123, !range !88, !noundef !89
  %5 = trunc nuw i8 %4 to i1
  br i1 %5, label %_ZNK4Luau6TxnLog10getMutableINS_12FreeTypePackEPKNS_11TypePackVarEEEPT_T0_.exit, label %6

6:                                                ; preds = %2
  %7 = getelementptr inbounds nuw i8, ptr %0, i64 144
  %8 = load ptr, ptr %7, align 8, !tbaa !90
  %9 = tail call noundef ptr @_ZNK4Luau6TxnLog7pendingEPKNS_11TypePackVarE(ptr noundef nonnull align 8 dereferenceable(128) %8, ptr noundef nonnull %1)
  %.not.i = icmp eq ptr %9, null
  br i1 %.not.i, label %12, label %10

10:                                               ; preds = %6
  %11 = tail call noundef ptr @_ZN4Luau9asMutableEPKNS_11TypePackVarE(ptr noundef nonnull %9)
  %.not.i.i.i.i = icmp eq ptr %11, null
  br i1 %.not.i.i.i.i, label %_ZNK4Luau6TxnLog10getMutableINS_12FreeTypePackEPKNS_11TypePackVarEEEPT_T0_.exit, label %_ZN4Luau10getMutableINS_12FreeTypePackEEEPT_PNS_15PendingTypePackE.exit.sink.split.i

12:                                               ; preds = %6
  %13 = tail call noundef ptr @_ZN4Luau9asMutableEPKNS_11TypePackVarE(ptr noundef nonnull %1)
  %.not.i.i.i = icmp eq ptr %13, null
  br i1 %.not.i.i.i, label %_ZNK4Luau6TxnLog10getMutableINS_12FreeTypePackEPKNS_11TypePackVarEEEPT_T0_.exit, label %_ZN4Luau10getMutableINS_12FreeTypePackEEEPT_PNS_15PendingTypePackE.exit.sink.split.i

_ZN4Luau10getMutableINS_12FreeTypePackEEEPT_PNS_15PendingTypePackE.exit.sink.split.i: ; preds = %12, %10
  %.sink.i = phi ptr [ %11, %10 ], [ %13, %12 ]
  %14 = load i32, ptr %.sink.i, align 8, !tbaa !126
  %15 = icmp eq i32 %14, 2
  br label %_ZNK4Luau6TxnLog10getMutableINS_12FreeTypePackEPKNS_11TypePackVarEEEPT_T0_.exit

_ZNK4Luau6TxnLog10getMutableINS_12FreeTypePackEPKNS_11TypePackVarEEEPT_T0_.exit: ; preds = %_ZN4Luau10getMutableINS_12FreeTypePackEEEPT_PNS_15PendingTypePackE.exit.sink.split.i, %12, %10, %2
  %.0 = phi i1 [ false, %2 ], [ false, %10 ], [ false, %12 ], [ %15, %_ZN4Luau10getMutableINS_12FreeTypePackEEEPT_PNS_15PendingTypePackE.exit.sink.split.i ]
  ret i1 %.0
}